target datalayout = "e-m:e-p270:32:32-p271:32:32-p272:64:64-i64:64-i128:128-f80:128-n8:16:32:64-S128"
target triple = "x86_64-pc-linux-gnu"

%class.mpz = type { i32, i8, ptr }
%class.mpbq = type <{ %class.mpz, i32, [4 x i8] }>
%class.mpbq_manager = type { ptr, %class.mpz, %class.mpz, %class.mpbq, %class.mpz, %class.mpz, %class.mpz, %class.mpbq, %class.mpbq, %class.mpz, %class.mpz, %class.mpz }

; Function Attrs: mustprogress uwtable
define linkonce_odr hidden noundef zeroext i1 @_ZN11mpz_managerILb0EE7is_zeroERK3mpz(ptr noundef nonnull align 8 dereferenceable(16) %0) #4 comdat align 2 {
  %2 = alloca ptr, align 8
  store ptr %0, ptr %2, align 8, !tbaa !10
  %3 = load ptr, ptr %2, align 8, !tbaa !10
  %4 = call noundef i32 @_ZN11mpz_managerILb0EE4signERK3mpz(ptr noundef nonnull align 8 dereferenceable(16) %3)
  %5 = icmp eq i32 %4, 0
  ret i1 %5
}

; Function Attrs: mustprogress nounwind uwtable
define linkonce_odr hidden void @_ZN3mpzC2Ei(ptr noundef nonnull align 8 dereferenceable(16) %0, i32 noundef %1) unnamed_addr #6 comdat align 2 {
  %3 = alloca ptr, align 8
  %4 = alloca i32, align 4
  store ptr %0, ptr %3, align 8, !tbaa !10
  store i32 %1, ptr %4, align 4, !tbaa !12
  %5 = load ptr, ptr %3, align 8
  %6 = getelementptr inbounds nuw %class.mpz, ptr %5, i32 0, i32 0
  %7 = load i32, ptr %4, align 4, !tbaa !12
  store i32 %7, ptr %6, align 8, !tbaa !24
  %8 = getelementptr inbounds nuw %class.mpz, ptr %5, i32 0, i32 1
  %9 = load i8, ptr %8, align 4
  %10 = and i8 %9, -2
  %11 = or i8 %10, 0
  store i8 %11, ptr %8, align 4
  %12 = getelementptr inbounds nuw %class.mpz, ptr %5, i32 0, i32 1
  %13 = load i8, ptr %12, align 4
  %14 = and i8 %13, -3
  %15 = or i8 %14, 0
  store i8 %15, ptr %12, align 4
  %16 = getelementptr inbounds nuw %class.mpz, ptr %5, i32 0, i32 2
  store ptr null, ptr %16, align 8, !tbaa !25
  ret void
}

; Function Attrs: mustprogress nounwind uwtable
define linkonce_odr hidden noundef i32 @_ZN11mpz_managerILb0EE4signERK3mpz(ptr noundef nonnull align 8 dereferenceable(16) %0) #6 comdat align 2 {
  %2 = alloca ptr, align 8
  store ptr %0, ptr %2, align 8, !tbaa !10
  %3 = load ptr, ptr %2, align 8, !tbaa !10
  %4 = getelementptr inbounds nuw %class.mpz, ptr %3, i32 0, i32 0
  %5 = load i32, ptr %4, align 8, !tbaa !24
  ret i32 %5
}

; Function Attrs: mustprogress uwtable
define hidden void @_ZN12mpbq_manager9normalizeER4mpbq(ptr noundef nonnull align 8 dereferenceable(208) %0, ptr noundef nonnull align 8 dereferenceable(20) %1) #4 align 2 {
  %3 = alloca ptr, align 8
  %4 = alloca ptr, align 8
  %5 = alloca i32, align 4
  store ptr %0, ptr %3, align 8, !tbaa !20
  store ptr %1, ptr %4, align 8, !tbaa !3
  %6 = load ptr, ptr %3, align 8
  %7 = load ptr, ptr %4, align 8, !tbaa !3
  %8 = getelementptr inbounds nuw %class.mpbq, ptr %7, i32 0, i32 1
  %9 = load i32, ptr %8, align 8, !tbaa !14
  %10 = icmp eq i32 %9, 0
  br i1 %10, label %11, label %12

11:                                               ; preds = %2
  br label %45

12:                                               ; preds = %2
  %13 = load ptr, ptr %4, align 8, !tbaa !3
  %14 = getelementptr inbounds nuw %class.mpbq, ptr %13, i32 0, i32 0
  %15 = call noundef zeroext i1 @_ZN11mpz_managerILb0EE7is_zeroERK3mpz(ptr noundef nonnull align 8 dereferenceable(16) %14)
  br i1 %15, label %16, label %19

16:                                               ; preds = %12
  %17 = load ptr, ptr %4, align 8, !tbaa !3
  %18 = getelementptr inbounds nuw %class.mpbq, ptr %17, i32 0, i32 1
  store i32 0, ptr %18, align 8, !tbaa !14
  br label %45

19:                                               ; preds = %12
  call void @llvm.lifetime.start.p0(i64 4, ptr %5) #3
  %20 = getelementptr inbounds nuw %class.mpbq_manager, ptr %6, i32 0, i32 0
  %21 = load ptr, ptr %20, align 8, !tbaa !26
  %22 = load ptr, ptr %4, align 8, !tbaa !3
  %23 = getelementptr inbounds nuw %class.mpbq, ptr %22, i32 0, i32 0
  %24 = call noundef i32 @_ZN11mpz_managerILb0EE21power_of_two_multipleERK3mpz(ptr noundef nonnull align 8 dereferenceable(600) %21, ptr noundef nonnull align 8 dereferenceable(16) %23)
  store i32 %24, ptr %5, align 4, !tbaa !12
  %25 = load i32, ptr %5, align 4, !tbaa !12
  %26 = load ptr, ptr %4, align 8, !tbaa !3
  %27 = getelementptr inbounds nuw %class.mpbq, ptr %26, i32 0, i32 1
  %28 = load i32, ptr %27, align 8, !tbaa !14
  %29 = icmp ugt i32 %25, %28
  br i1 %29, label %30, label %34

30:                                               ; preds = %19
  %31 = load ptr, ptr %4, align 8, !tbaa !3
  %32 = getelementptr inbounds nuw %class.mpbq, ptr %31, i32 0, i32 1
  %33 = load i32, ptr %32, align 8, !tbaa !14
  store i32 %33, ptr %5, align 4, !tbaa !12
  br label %34

34:                                               ; preds = %30, %19
  %35 = getelementptr inbounds nuw %class.mpbq_manager, ptr %6, i32 0, i32 0
  %36 = load ptr, ptr %35, align 8, !tbaa !26
  %37 = load ptr, ptr %4, align 8, !tbaa !3
  %38 = getelementptr inbounds nuw %class.mpbq, ptr %37, i32 0, i32 0
  %39 = load i32, ptr %5, align 4, !tbaa !12
  call void @_ZN11mpz_managerILb0EE13machine_div2kER3mpzj(ptr noundef nonnull align 8 dereferenceable(600) %36, ptr noundef nonnull align 8 dereferenceable(16) %38, i32 noundef %39)
  %40 = load i32, ptr %5, align 4, !tbaa !12
  %41 = load ptr, ptr %4, align 8, !tbaa !3
  %42 = getelementptr inbounds nuw %class.mpbq, ptr %41, i32 0, i32 1
  %43 = load i32, ptr %42, align 8, !tbaa !14
  %44 = sub i32 %43, %40
  store i32 %44, ptr %42, align 8, !tbaa !14
  call void @llvm.lifetime.end.p0(i64 4, ptr %5) #3
  br label %45

45:                                               ; preds = %34, %16, %11
  ret void
}

; Function Attrs: mustprogress uwtable
define linkonce_odr hidden void @_ZN11mpz_managerILb0EE3incER3mpz(ptr noundef nonnull align 8 dereferenceable(600) %0, ptr noundef nonnull align 8 dereferenceable(16) %1) #4 comdat align 2 {
  %3 = alloca ptr, align 8
  %4 = alloca ptr, align 8
  %5 = alloca %class.mpz, align 8
  store ptr %0, ptr %3, align 8, !tbaa !22
  store ptr %1, ptr %4, align 8, !tbaa !10
  %6 = load ptr, ptr %3, align 8
  %7 = load ptr, ptr %4, align 8, !tbaa !10
  call void @llvm.lifetime.start.p0(i64 16, ptr %5) #3
  call void @_ZN3mpzC2Ei(ptr noundef nonnull align 8 dereferenceable(16) %5, i32 noundef 1)
  %8 = load ptr, ptr %4, align 8, !tbaa !10
  call void @_ZN11mpz_managerILb0EE3addERK3mpzS3_RS1_(ptr noundef nonnull align 8 dereferenceable(600) %6, ptr noundef nonnull align 8 dereferenceable(16) %7, ptr noundef nonnull align 8 dereferenceable(16) %5, ptr noundef nonnull align 8 dereferenceable(16) %8)
  call void @llvm.lifetime.end.p0(i64 16, ptr %5) #3
  ret void
}

; Function Attrs: mustprogress nounwind uwtable
define linkonce_odr hidden noundef zeroext i1 @_ZN11mpz_managerILb0EE6is_negERK3mpz(ptr noundef nonnull align 8 dereferenceable(16) %0) #6 comdat align 2 {
  %2 = alloca ptr, align 8
  store ptr %0, ptr %2, align 8, !tbaa !10
  %3 = load ptr, ptr %2, align 8, !tbaa !10
  %4 = call noundef i32 @_ZN11mpz_managerILb0EE4signERK3mpz(ptr noundef nonnull align 8 dereferenceable(16) %3)
  %5 = icmp slt i32 %4, 0
  ret i1 %5
}

; Function Attrs: mustprogress uwtable
define hidden void @_ZN12mpbq_manager6approxER4mpbqjb(ptr noundef nonnull align 8 dereferenceable(208) %0, ptr noundef nonnull align 8 dereferenceable(20) %1, i32 noundef %2, i1 noundef zeroext %3) #4 align 2 {
  %5 = alloca ptr, align 8
  %6 = alloca ptr, align 8
  %7 = alloca i32, align 4
  %8 = alloca i8, align 1
  %9 = alloca i8, align 1
  %10 = alloca i8, align 1
  %11 = alloca i32, align 4
  store ptr %0, ptr %5, align 8, !tbaa !20
  store ptr %1, ptr %6, align 8, !tbaa !3
  store i32 %2, ptr %7, align 4, !tbaa !12
  %12 = zext i1 %3 to i8
  store i8 %12, ptr %8, align 1, !tbaa !34
  %13 = load ptr, ptr %5, align 8
  %14 = load ptr, ptr %6, align 8, !tbaa !3
  %15 = getelementptr inbounds nuw %class.mpbq, ptr %14, i32 0, i32 1
  %16 = load i32, ptr %15, align 8, !tbaa !14
  %17 = load i32, ptr %7, align 4, !tbaa !12
  %18 = icmp ule i32 %16, %17
  br i1 %18, label %19, label %20

19:                                               ; preds = %4
  br label %67

20:                                               ; preds = %4
  call void @llvm.lifetime.start.p0(i64 1, ptr %9) #3
  %21 = load ptr, ptr %6, align 8, !tbaa !3
  %22 = getelementptr inbounds nuw %class.mpbq, ptr %21, i32 0, i32 0
  %23 = call noundef zeroext i1 @_ZN11mpz_managerILb0EE6is_negERK3mpz(ptr noundef nonnull align 8 dereferenceable(16) %22)
  %24 = zext i1 %23 to i8
  store i8 %24, ptr %9, align 1, !tbaa !34
  call void @llvm.lifetime.start.p0(i64 1, ptr %10) #3
  %25 = load i8, ptr %9, align 1, !tbaa !34, !range !36, !noundef !37
  %26 = trunc i8 %25 to i1
  %27 = zext i1 %26 to i32
  %28 = load i8, ptr %8, align 1, !tbaa !34, !range !36, !noundef !37
  %29 = trunc i8 %28 to i1
  %30 = zext i1 %29 to i32
  %31 = icmp ne i32 %27, %30
  %32 = zext i1 %31 to i8
  store i8 %32, ptr %10, align 1, !tbaa !34
  call void @llvm.lifetime.start.p0(i64 4, ptr %11) #3
  %33 = load ptr, ptr %6, align 8, !tbaa !3
  %34 = getelementptr inbounds nuw %class.mpbq, ptr %33, i32 0, i32 1
  %35 = load i32, ptr %34, align 8, !tbaa !14
  %36 = load i32, ptr %7, align 4, !tbaa !12
  %37 = sub i32 %35, %36
  store i32 %37, ptr %11, align 4, !tbaa !12
  %38 = getelementptr inbounds nuw %class.mpbq_manager, ptr %13, i32 0, i32 0
  %39 = load ptr, ptr %38, align 8, !tbaa !26
  %40 = load ptr, ptr %6, align 8, !tbaa !3
  %41 = getelementptr inbounds nuw %class.mpbq, ptr %40, i32 0, i32 0
  call void @_ZN11mpz_managerILb0EE3absER3mpz(ptr noundef nonnull align 8 dereferenceable(600) %39, ptr noundef nonnull align 8 dereferenceable(16) %41)
  %42 = getelementptr inbounds nuw %class.mpbq_manager, ptr %13, i32 0, i32 0
  %43 = load ptr, ptr %42, align 8, !tbaa !26
  %44 = load ptr, ptr %6, align 8, !tbaa !3
  %45 = getelementptr inbounds nuw %class.mpbq, ptr %44, i32 0, i32 0
  %46 = load i32, ptr %11, align 4, !tbaa !12
  call void @_ZN11mpz_managerILb0EE13machine_div2kER3mpzj(ptr noundef nonnull align 8 dereferenceable(600) %43, ptr noundef nonnull align 8 dereferenceable(16) %45, i32 noundef %46)
  %47 = load i8, ptr %10, align 1, !tbaa !34, !range !36, !noundef !37
  %48 = trunc i8 %47 to i1
  br i1 %48, label %49, label %54

49:                                               ; preds = %20
  %50 = getelementptr inbounds nuw %class.mpbq_manager, ptr %13, i32 0, i32 0
  %51 = load ptr, ptr %50, align 8, !tbaa !26
  %52 = load ptr, ptr %6, align 8, !tbaa !3
  %53 = getelementptr inbounds nuw %class.mpbq, ptr %52, i32 0, i32 0
  call void @_ZN11mpz_managerILb0EE3incER3mpz(ptr noundef nonnull align 8 dereferenceable(600) %51, ptr noundef nonnull align 8 dereferenceable(16) %53)
  br label %54

54:                                               ; preds = %49, %20
  %55 = load i8, ptr %9, align 1, !tbaa !34, !range !36, !noundef !37
  %56 = trunc i8 %55 to i1
  br i1 %56, label %57, label %62

57:                                               ; preds = %54
  %58 = getelementptr inbounds nuw %class.mpbq_manager, ptr %13, i32 0, i32 0
  %59 = load ptr, ptr %58, align 8, !tbaa !26
  %60 = load ptr, ptr %6, align 8, !tbaa !3
  %61 = getelementptr inbounds nuw %class.mpbq, ptr %60, i32 0, i32 0
  call void @_ZN11mpz_managerILb0EE3negER3mpz(ptr noundef nonnull align 8 dereferenceable(600) %59, ptr noundef nonnull align 8 dereferenceable(16) %61)
  br label %62

62:                                               ; preds = %57, %54
  %63 = load i32, ptr %7, align 4, !tbaa !12
  %64 = load ptr, ptr %6, align 8, !tbaa !3
  %65 = getelementptr inbounds nuw %class.mpbq, ptr %64, i32 0, i32 1
  store i32 %63, ptr %65, align 8, !tbaa !14
  %66 = load ptr, ptr %6, align 8, !tbaa !3
  call void @_ZN12mpbq_manager9normalizeER4mpbq(ptr noundef nonnull align 8 dereferenceable(208) %13, ptr noundef nonnull align 8 dereferenceable(20) %66)
  call void @llvm.lifetime.end.p0(i64 4, ptr %11) #3
  call void @llvm.lifetime.end.p0(i64 1, ptr %10) #3
  call void @llvm.lifetime.end.p0(i64 1, ptr %9) #3
  br label %67

67:                                               ; preds = %62, %19
  ret void
}