; Function Attrs: mustprogress uwtable
define hidden void @_ZN12mpbq_manager6approxER4mpbqjb(ptr noundef nonnull readonly align 8 captures(none) dereferenceable(208) %0, ptr noundef nonnull align 8 dereferenceable(20) %1, i32 noundef %2, i1 noundef zeroext %3) local_unnamed_addr #3 align 2 {
  %5 = alloca %class.mpz, align 8
  %6 = getelementptr inbounds nuw i8, ptr %1, i64 16
  %7 = load i32, ptr %6, align 8, !tbaa !13
  %.not = icmp ugt i32 %7, %2
  br i1 %.not, label %8, label %_ZN12mpbq_manager9normalizeER4mpbq.exit

8:                                                ; preds = %4
  %9 = load i32, ptr %1, align 8, !tbaa !3
  %10 = icmp slt i32 %9, 0
  %11 = xor i1 %3, %10
  %12 = sub nuw i32 %7, %2
  %13 = load ptr, ptr %0, align 8, !tbaa !26
  tail call void @_ZN11mpz_managerILb0EE3absER3mpz(ptr noundef nonnull align 8 dereferenceable(600) %13, ptr noundef nonnull align 8 dereferenceable(16) %1)
  %14 = load ptr, ptr %0, align 8, !tbaa !26
  tail call void @_ZN11mpz_managerILb0EE13machine_div2kER3mpzj(ptr noundef nonnull align 8 dereferenceable(600) %14, ptr noundef nonnull align 8 dereferenceable(16) %1, i32 noundef %12)
  br i1 %11, label %15, label %19

15:                                               ; preds = %8
  %16 = load ptr, ptr %0, align 8, !tbaa !26
  call void @llvm.lifetime.start.p0(i64 16, ptr nonnull %5) #18
  store i32 1, ptr %5, align 8, !tbaa !3
  %17 = getelementptr inbounds nuw i8, ptr %5, i64 4
  store i8 0, ptr %17, align 4
  %18 = getelementptr inbounds nuw i8, ptr %5, i64 8
  store ptr null, ptr %18, align 8, !tbaa !10
  call void @_ZN11mpz_managerILb0EE3addERK3mpzS3_RS1_(ptr noundef nonnull align 8 dereferenceable(600) %16, ptr noundef nonnull align 8 dereferenceable(16) %1, ptr noundef nonnull align 8 dereferenceable(16) %5, ptr noundef nonnull align 8 dereferenceable(16) %1)
  call void @llvm.lifetime.end.p0(i64 16, ptr nonnull %5) #18
  br label %19

19:                                               ; preds = %15, %8
  br i1 %10, label %20, label %22

20:                                               ; preds = %19
  %21 = load ptr, ptr %0, align 8, !tbaa !26
  call void @_ZN11mpz_managerILb0EE3negER3mpz(ptr noundef nonnull align 8 dereferenceable(600) %21, ptr noundef nonnull align 8 dereferenceable(16) %1)
  br label %22

22:                                               ; preds = %20, %19
  store i32 %2, ptr %6, align 8, !tbaa !13
  %23 = icmp eq i32 %2, 0
  br i1 %23, label %_ZN12mpbq_manager9normalizeER4mpbq.exit, label %24

24:                                               ; preds = %22
  %25 = load i32, ptr %1, align 8, !tbaa !3
  %26 = icmp eq i32 %25, 0
  br i1 %26, label %.sink.split.i, label %27

27:                                               ; preds = %24
  %28 = load ptr, ptr %0, align 8, !tbaa !26
  %29 = call noundef i32 @_ZN11mpz_managerILb0EE21power_of_two_multipleERK3mpz(ptr noundef nonnull align 8 dereferenceable(600) %28, ptr noundef nonnull align 8 dereferenceable(20) %1)
  %30 = load i32, ptr %6, align 8, !tbaa !13
  %spec.select.i = call i32 @llvm.umin.i32(i32 %29, i32 %30)
  %31 = load ptr, ptr %0, align 8, !tbaa !26
  call void @_ZN11mpz_managerILb0EE13machine_div2kER3mpzj(ptr noundef nonnull align 8 dereferenceable(600) %31, ptr noundef nonnull align 8 dereferenceable(20) %1, i32 noundef %spec.select.i)
  %32 = load i32, ptr %6, align 8, !tbaa !13
  %33 = sub i32 %32, %spec.select.i
  br label %.sink.split.i

.sink.split.i:                                    ; preds = %27, %24
  %.sink.i = phi i32 [ %33, %27 ], [ 0, %24 ]
  store i32 %.sink.i, ptr %6, align 8, !tbaa !13
  br label %_ZN12mpbq_manager9normalizeER4mpbq.exit

_ZN12mpbq_manager9normalizeER4mpbq.exit:          ; preds = %.sink.split.i, %22, %4
  ret void
}